; ModuleID = '15/402.c'
source_filename = "15/402.c"
target datalayout = "e-m:e-p270:32:32-p271:32:32-p272:64:64-i64:64-f80:128-n8:16:32:64-S128"
target triple = "x86_64-pc-linux-gnu"

@.str = private unnamed_addr constant [3 x i8] c"%d\00", align 1

; Function Attrs: noinline nounwind uwtable
define dso_local i32 @main() #0 {
  %1 = alloca i32, align 4
  %2 = alloca i32, align 4
  %3 = alloca i32, align 4
  %4 = alloca i32, align 4
  %5 = alloca i32, align 4
  %6 = alloca i32, align 4
  %7 = alloca i32, align 4
  %8 = alloca i32, align 4
  %9 = alloca i32, align 4
  %10 = alloca i32, align 4
  %11 = alloca i32, align 4
  store i32 0, i32* %1, align 4
  store i32 0, i32* %3, align 4
  store i32 0, i32* %4, align 4
  store i32 0, i32* %7, align 4
  %12 = call i32 (i8*, ...) @__isoc99_scanf(i8* getelementptr inbounds ([3 x i8], [3 x i8]* @.str, i64 0, i64 0), i32* %2)
  store i32 0, i32* %7, align 4
  store i32 1, i32* %3, align 4
  br label %13

13:                                               ; preds = %44, %0
  %14 = load i32, i32* %3, align 4
  %15 = load i32, i32* %2, align 4
  %16 = icmp sle i32 %14, %15
  br i1 %16, label %17, label %47

17:                                               ; preds = %13
  store i32 1, i32* %4, align 4
  br label %18

18:                                               ; preds = %40, %17
  %19 = load i32, i32* %4, align 4
  %20 = load i32, i32* %2, align 4
  %21 = icmp sle i32 %19, %20
  br i1 %21, label %22, label %43

22:                                               ; preds = %18
  %23 = call i32 (i8*, ...) @__isoc99_scanf(i8* getelementptr inbounds ([3 x i8], [3 x i8]* @.str, i64 0, i64 0), i32* %9)
  %24 = load i32, i32* %9, align 4
  %25 = icmp eq i32 %24, 0
  br i1 %25, label %26, label %32

26:                                               ; preds = %22
  %27 = load i32, i32* %7, align 4
  %28 = icmp eq i32 %27, 0
  br i1 %28, label %29, label %32

29:                                               ; preds = %26
  %30 = load i32, i32* %3, align 4
  store i32 %30, i32* %10, align 4
  %31 = load i32, i32* %4, align 4
  store i32 %31, i32* %11, align 4
  store i32 1, i32* %7, align 4
  br label %39

32:                                               ; preds = %26, %22
  %33 = load i32, i32* %9, align 4
  %34 = icmp eq i32 %33, 0
  br i1 %34, label %35, label %38

35:                                               ; preds = %32
  %36 = load i32, i32* %3, align 4
  store i32 %36, i32* %5, align 4
  %37 = load i32, i32* %4, align 4
  store i32 %37, i32* %6, align 4
  br label %38

38:                                               ; preds = %35, %32
  br label %39

39:                                               ; preds = %38, %29
  br label %40

40:                                               ; preds = %39
  %41 = load i32, i32* %4, align 4
  %42 = add nsw i32 %41, 1
  store i32 %42, i32* %4, align 4
  br label %18

43:                                               ; preds = %18
  br label %44

44:                                               ; preds = %43
  %45 = load i32, i32* %3, align 4
  %46 = add nsw i32 %45, 1
  store i32 %46, i32* %3, align 4
  br label %13

47:                                               ; preds = %13
  %48 = load i32, i32* %5, align 4
  %49 = load i32, i32* %10, align 4
  %50 = sub nsw i32 %48, %49
  %51 = sub nsw i32 %50, 1
  %52 = load i32, i32* %6, align 4
  %53 = load i32, i32* %11, align 4
  %54 = sub nsw i32 %52, %53
  %55 = sub nsw i32 %54, 1
  %56 = mul nsw i32 %51, %55
  store i32 %56, i32* %8, align 4
  %57 = load i32, i32* %8, align 4
  %58 = call i32 (i8*, ...) @printf(i8* getelementptr inbounds ([3 x i8], [3 x i8]* @.str, i64 0, i64 0), i32 %57)
  ret i32 0
}

declare dso_local i32 @__isoc99_scanf(i8*, ...) #1

declare dso_local i32 @printf(i8*, ...) #1


!llvm.module.flags = !{!0}
!llvm.ident = !{!1}

!0 = !{i32 1, !"wchar_size", i32 4}
!1 = !{!"clang version 10.0.0-4ubuntu1 "}
